; Function Attrs: mustprogress uwtable
define hidden void @_ZN5boost6locale8impl_std27create_localization_backendEv(ptr dead_on_unwind noalias nocapture writable writeonly sret(%"class.std::unique_ptr") align 8 %0) local_unnamed_addr #0 personality ptr @__gxx_personality_v0 {
_ZNSt10unique_ptrIN5boost6locale8impl_std24std_localization_backendESt14default_deleteIS3_EED2Ev.exit:
  %1 = alloca %"class.std::unique_ptr.2", align 8
  call void @llvm.lifetime.start.p0(i64 8, ptr nonnull %1) #21
  call void @_ZN5boost6locale15make_std_uniqueINS0_8impl_std24std_localization_backendEJEEESt10unique_ptrIT_St14default_deleteIS5_EEDpOT0_(ptr dead_on_unwind nonnull writable sret(%"class.std::unique_ptr.2") align 8 %1)
  %2 = load ptr, ptr %1, align 8, !tbaa !3
  store ptr %2, ptr %0, align 8, !tbaa !7
  call void @llvm.lifetime.end.p0(i64 8, ptr nonnull %1) #21
  ret void
}